target datalayout = "e-m:e-p270:32:32-p271:32:32-p272:64:64-i64:64-i128:128-f80:128-n8:16:32:64-S128"
target triple = "x86_64-pc-linux-gnu"

%struct._lv_matrix_t = type { [3 x [3 x float]] }
%struct._lv_array_t = type { ptr, i32, i32, i32, i8 }
%struct.lv_area_t = type { i32, i32, i32, i32 }
%struct.lv_color32_t = type { i8, i8, i8, i8 }
%struct.lv_color_t = type { i8, i8, i8 }
%struct._lv_vector_dsc_t = type { ptr, %struct._lv_vector_draw_dsc_t, %struct._lv_draw_vector_task_dsc_t }
%struct._lv_vector_draw_dsc_t = type { %struct._lv_vector_fill_dsc_t, %struct._lv_vector_stroke_dsc_t, %struct._lv_matrix_t, i32, %struct.lv_area_t }
%struct._lv_vector_fill_dsc_t = type { i32, %struct.lv_color32_t, i8, i32, %struct._lv_draw_image_dsc_t, %struct._lv_vector_gradient_t, %struct._lv_matrix_t }
%struct._lv_draw_image_dsc_t = type { %struct.lv_draw_dsc_base_t, ptr, %struct.lv_image_header_t, i32, i32, i32, i32, i32, %struct.lv_point_t, %struct.lv_color_t, i8, i8, i8, ptr, %struct.lv_area_t, i32, ptr }
%struct.lv_draw_dsc_base_t = type { ptr, i32, i32, i32, ptr, i64, ptr }
%struct.lv_image_header_t = type <{ i64, i32 }>
%struct.lv_point_t = type { i32, i32 }
%struct._lv_vector_gradient_t = type { i32, [2 x %struct.lv_gradient_stop_t], i16, float, float, float, float, float, float, float, i32 }
%struct.lv_gradient_stop_t = type { %struct.lv_color_t, i8, i8 }
%struct._lv_vector_stroke_dsc_t = type { i32, %struct.lv_color32_t, i8, float, %struct._lv_array_t, i32, i32, i16, %struct._lv_vector_gradient_t, %struct._lv_matrix_t }
%struct._lv_draw_vector_task_dsc_t = type { %struct.lv_draw_dsc_base_t, ptr }
%struct._lv_layer_t = type { ptr, %struct.lv_area_t, i32, %struct.lv_area_t, %struct.lv_area_t, ptr, ptr, ptr, i8, ptr }

; Function Attrs: inlinehint nounwind uwtable
define internal void @lv_memzero(ptr noundef %0, i64 noundef %1) #4 {
  %3 = alloca ptr, align 8
  %4 = alloca i64, align 8
  store ptr %0, ptr %3, align 8, !tbaa !3
  store i64 %1, ptr %4, align 8, !tbaa !20
  %5 = load ptr, ptr %3, align 8, !tbaa !3
  %6 = load i64, ptr %4, align 8, !tbaa !20
  call void @lv_memset(ptr noundef %5, i8 noundef zeroext 0, i64 noundef %6)
  ret void
}

; Function Attrs: nounwind uwtable
define ptr @lv_vector_dsc_create(ptr noundef %0) #0 {
  %2 = alloca ptr, align 8
  %3 = alloca ptr, align 8
  %4 = alloca ptr, align 8
  %5 = alloca %struct.lv_color32_t, align 1
  %6 = alloca %struct.lv_color_t, align 1
  %7 = alloca i24, align 4
  %8 = alloca ptr, align 8
  %9 = alloca %struct.lv_color32_t, align 1
  %10 = alloca %struct.lv_color_t, align 1
  %11 = alloca i24, align 4
  store ptr %0, ptr %2, align 8, !tbaa !3
  call void @llvm.lifetime.start.p0(i64 8, ptr %3) #7
  %12 = call ptr @lv_malloc(i64 noundef 504)
  store ptr %12, ptr %3, align 8, !tbaa !3
  br label %13

13:                                               ; preds = %1
  %14 = load ptr, ptr %3, align 8, !tbaa !3
  %15 = icmp ne ptr %14, null
  br i1 %15, label %22, label %16

16:                                               ; preds = %13
  br label %17

17:                                               ; preds = %16
  br label %18

18:                                               ; preds = %17
  br label %19

19:                                               ; preds = %18
  br label %20

20:                                               ; preds = %21, %19
  br label %21

21:                                               ; preds = %20
  br label %20

22:                                               ; preds = %13
  br label %23

23:                                               ; preds = %22
  br label %24

24:                                               ; preds = %23
  %25 = load ptr, ptr %3, align 8, !tbaa !3
  call void @lv_memzero(ptr noundef %25, i64 noundef 504)
  %26 = load ptr, ptr %2, align 8, !tbaa !3
  %27 = load ptr, ptr %3, align 8, !tbaa !3
  %28 = getelementptr inbounds nuw %struct._lv_vector_dsc_t, ptr %27, i32 0, i32 0
  store ptr %26, ptr %28, align 8, !tbaa !36
  call void @llvm.lifetime.start.p0(i64 8, ptr %4) #7
  %29 = load ptr, ptr %3, align 8, !tbaa !3
  %30 = getelementptr inbounds nuw %struct._lv_vector_dsc_t, ptr %29, i32 0, i32 1
  %31 = getelementptr inbounds nuw %struct._lv_vector_draw_dsc_t, ptr %30, i32 0, i32 0
  store ptr %31, ptr %4, align 8, !tbaa !3
  %32 = load ptr, ptr %4, align 8, !tbaa !3
  %33 = getelementptr inbounds nuw %struct._lv_vector_fill_dsc_t, ptr %32, i32 0, i32 0
  store i32 0, ptr %33, align 8, !tbaa !51
  %34 = load ptr, ptr %4, align 8, !tbaa !3
  %35 = getelementptr inbounds nuw %struct._lv_vector_fill_dsc_t, ptr %34, i32 0, i32 1
  call void @llvm.lifetime.start.p0(i64 4, ptr %5) #7
  %36 = call i24 @lv_color_black()
  store i24 %36, ptr %6, align 1
  call void @llvm.memcpy.p0.p0.i64(ptr align 4 %7, ptr align 1 %6, i64 3, i1 false)
  %37 = load i24, ptr %7, align 4
  %38 = call i32 @lv_color_to_32(i24 %37, i8 noundef zeroext -1)
  store i32 %38, ptr %5, align 1
  call void @llvm.memcpy.p0.p0.i64(ptr align 4 %35, ptr align 1 %5, i64 4, i1 false), !tbaa.struct !52
  call void @llvm.lifetime.end.p0(i64 4, ptr %5) #7
  %39 = load ptr, ptr %4, align 8, !tbaa !3
  %40 = getelementptr inbounds nuw %struct._lv_vector_fill_dsc_t, ptr %39, i32 0, i32 2
  store i8 -1, ptr %40, align 8, !tbaa !54
  %41 = load ptr, ptr %4, align 8, !tbaa !3
  %42 = getelementptr inbounds nuw %struct._lv_vector_fill_dsc_t, ptr %41, i32 0, i32 3
  store i32 0, ptr %42, align 4, !tbaa !55
  %43 = load ptr, ptr %4, align 8, !tbaa !3
  %44 = getelementptr inbounds nuw %struct._lv_vector_fill_dsc_t, ptr %43, i32 0, i32 6
  call void @lv_matrix_identity(ptr noundef %44)
  call void @llvm.lifetime.start.p0(i64 8, ptr %8) #7
  %45 = load ptr, ptr %3, align 8, !tbaa !3
  %46 = getelementptr inbounds nuw %struct._lv_vector_dsc_t, ptr %45, i32 0, i32 1
  %47 = getelementptr inbounds nuw %struct._lv_vector_draw_dsc_t, ptr %46, i32 0, i32 1
  store ptr %47, ptr %8, align 8, !tbaa !3
  %48 = load ptr, ptr %8, align 8, !tbaa !3
  %49 = getelementptr inbounds nuw %struct._lv_vector_stroke_dsc_t, ptr %48, i32 0, i32 0
  store i32 0, ptr %49, align 8, !tbaa !56
  %50 = load ptr, ptr %8, align 8, !tbaa !3
  %51 = getelementptr inbounds nuw %struct._lv_vector_stroke_dsc_t, ptr %50, i32 0, i32 1
  call void @llvm.lifetime.start.p0(i64 4, ptr %9) #7
  %52 = call i24 @lv_color_black()
  store i24 %52, ptr %10, align 1
  call void @llvm.memcpy.p0.p0.i64(ptr align 4 %11, ptr align 1 %10, i64 3, i1 false)
  %53 = load i24, ptr %11, align 4
  %54 = call i32 @lv_color_to_32(i24 %53, i8 noundef zeroext -1)
  store i32 %54, ptr %9, align 1
  call void @llvm.memcpy.p0.p0.i64(ptr align 4 %51, ptr align 1 %9, i64 4, i1 false), !tbaa.struct !52
  call void @llvm.lifetime.end.p0(i64 4, ptr %9) #7
  %55 = load ptr, ptr %8, align 8, !tbaa !3
  %56 = getelementptr inbounds nuw %struct._lv_vector_stroke_dsc_t, ptr %55, i32 0, i32 2
  store i8 0, ptr %56, align 8, !tbaa !57
  %57 = load ptr, ptr %8, align 8, !tbaa !3
  %58 = getelementptr inbounds nuw %struct._lv_vector_stroke_dsc_t, ptr %57, i32 0, i32 3
  store float 1.000000e+00, ptr %58, align 4, !tbaa !58
  %59 = load ptr, ptr %8, align 8, !tbaa !3
  %60 = getelementptr inbounds nuw %struct._lv_vector_stroke_dsc_t, ptr %59, i32 0, i32 5
  store i32 0, ptr %60, align 8, !tbaa !59
  %61 = load ptr, ptr %8, align 8, !tbaa !3
  %62 = getelementptr inbounds nuw %struct._lv_vector_stroke_dsc_t, ptr %61, i32 0, i32 6
  store i32 0, ptr %62, align 4, !tbaa !60
  %63 = load ptr, ptr %8, align 8, !tbaa !3
  %64 = getelementptr inbounds nuw %struct._lv_vector_stroke_dsc_t, ptr %63, i32 0, i32 7
  store i16 4, ptr %64, align 8, !tbaa !61
  %65 = load ptr, ptr %8, align 8, !tbaa !3
  %66 = getelementptr inbounds nuw %struct._lv_vector_stroke_dsc_t, ptr %65, i32 0, i32 9
  call void @lv_matrix_identity(ptr noundef %66)
  %67 = load ptr, ptr %3, align 8, !tbaa !3
  %68 = getelementptr inbounds nuw %struct._lv_vector_dsc_t, ptr %67, i32 0, i32 1
  %69 = getelementptr inbounds nuw %struct._lv_vector_draw_dsc_t, ptr %68, i32 0, i32 3
  store i32 0, ptr %69, align 4, !tbaa !62
  %70 = load ptr, ptr %3, align 8, !tbaa !3
  %71 = getelementptr inbounds nuw %struct._lv_vector_dsc_t, ptr %70, i32 0, i32 1
  %72 = getelementptr inbounds nuw %struct._lv_vector_draw_dsc_t, ptr %71, i32 0, i32 4
  %73 = load ptr, ptr %2, align 8, !tbaa !3
  %74 = getelementptr inbounds nuw %struct._lv_layer_t, ptr %73, i32 0, i32 3
  call void @llvm.memcpy.p0.p0.i64(ptr align 8 %72, ptr align 4 %74, i64 16, i1 false), !tbaa.struct !63
  %75 = load ptr, ptr %3, align 8, !tbaa !3
  %76 = getelementptr inbounds nuw %struct._lv_vector_dsc_t, ptr %75, i32 0, i32 1
  %77 = getelementptr inbounds nuw %struct._lv_vector_draw_dsc_t, ptr %76, i32 0, i32 2
  call void @lv_matrix_identity(ptr noundef %77)
  %78 = load ptr, ptr %3, align 8, !tbaa !3
  %79 = getelementptr inbounds nuw %struct._lv_vector_dsc_t, ptr %78, i32 0, i32 2
  %80 = getelementptr inbounds nuw %struct._lv_draw_vector_task_dsc_t, ptr %79, i32 0, i32 1
  store ptr null, ptr %80, align 8, !tbaa !64
  %81 = load ptr, ptr %3, align 8, !tbaa !3
  call void @llvm.lifetime.end.p0(i64 8, ptr %8) #7
  call void @llvm.lifetime.end.p0(i64 8, ptr %4) #7
  call void @llvm.lifetime.end.p0(i64 8, ptr %3) #7
  ret ptr %81
}