; Function Attrs: nounwind uwtable
define nonnull ptr @lv_vector_dsc_create(ptr noundef %0) local_unnamed_addr #3 {
  %2 = tail call ptr @lv_malloc(i64 noundef 504) #9
  %.not = icmp eq ptr %2, null
  br i1 %.not, label %.preheader, label %3

.preheader:                                       ; preds = %1, %.preheader
  br label %.preheader

3:                                                ; preds = %1
  tail call void @lv_memset(ptr noundef nonnull %2, i8 noundef zeroext 0, i64 noundef 504) #9
  store ptr %0, ptr %2, align 8, !tbaa !30
  %4 = getelementptr inbounds nuw i8, ptr %2, i64 8
  store i32 0, ptr %4, align 8, !tbaa !46
  %5 = getelementptr inbounds nuw i8, ptr %2, i64 12
  %6 = tail call i24 @lv_color_black() #9
  %7 = tail call i32 @lv_color_to_32(i24 %6, i8 noundef zeroext -1) #9
  store i32 %7, ptr %5, align 4
  %8 = getelementptr inbounds nuw i8, ptr %2, i64 16
  store i8 -1, ptr %8, align 8, !tbaa !47
  %9 = getelementptr inbounds nuw i8, ptr %2, i64 20
  store i32 0, ptr %9, align 4, !tbaa !48
  %10 = getelementptr inbounds nuw i8, ptr %2, i64 216
  tail call void @lv_matrix_identity(ptr noundef nonnull %10) #9
  %11 = getelementptr inbounds nuw i8, ptr %2, i64 256
  store i32 0, ptr %11, align 8, !tbaa !49
  %12 = getelementptr inbounds nuw i8, ptr %2, i64 260
  %13 = tail call i24 @lv_color_black() #9
  %14 = tail call i32 @lv_color_to_32(i24 %13, i8 noundef zeroext -1) #9
  store i32 %14, ptr %12, align 4
  %15 = getelementptr inbounds nuw i8, ptr %2, i64 264
  store i8 0, ptr %15, align 8, !tbaa !50
  %16 = getelementptr inbounds nuw i8, ptr %2, i64 268
  store float 1.000000e+00, ptr %16, align 4, !tbaa !51
  %17 = getelementptr inbounds nuw i8, ptr %2, i64 296
  store i32 0, ptr %17, align 8, !tbaa !52
  %18 = getelementptr inbounds nuw i8, ptr %2, i64 300
  store i32 0, ptr %18, align 4, !tbaa !53
  %19 = getelementptr inbounds nuw i8, ptr %2, i64 304
  store i16 4, ptr %19, align 8, !tbaa !54
  %20 = getelementptr inbounds nuw i8, ptr %2, i64 356
  tail call void @lv_matrix_identity(ptr noundef nonnull %20) #9
  %21 = getelementptr inbounds nuw i8, ptr %2, i64 428
  store i32 0, ptr %21, align 4, !tbaa !55
  %22 = getelementptr inbounds nuw i8, ptr %2, i64 432
  %23 = getelementptr inbounds nuw i8, ptr %0, i64 28
  tail call void @llvm.memcpy.p0.p0.i64(ptr noundef nonnull align 8 dereferenceable(16) %22, ptr noundef nonnull align 4 dereferenceable(16) %23, i64 16, i1 false), !tbaa.struct !56
  %24 = getelementptr inbounds nuw i8, ptr %2, i64 392
  tail call void @lv_matrix_identity(ptr noundef nonnull %24) #9
  %25 = getelementptr inbounds nuw i8, ptr %2, i64 496
  store ptr null, ptr %25, align 8, !tbaa !57
  ret ptr %2
}